target datalayout = "e-m:e-p270:32:32-p271:32:32-p272:64:64-i64:64-i128:128-f80:128-n8:16:32:64-S128"
target triple = "x86_64-pc-linux-gnu"

%struct.KINMemRec = type { ptr, double, ptr, ptr, double, double, i32, i64, i64, i64, i64, i32, i32, i32, i32, i32, i32, i32, i32, double, double, double, double, double, double, double, double, double, i32, double, i64, i64, i64, i64, i64, i64, i64, ptr, ptr, ptr, ptr, ptr, ptr, ptr, ptr, ptr, ptr, ptr, i32, i32, double, ptr, ptr, ptr, ptr, ptr, double, ptr, ptr, ptr, ptr, i64, i64, i32, ptr, ptr, i32, ptr, ptr, i64, i64, i64, i64, ptr, ptr, ptr, ptr, i32, ptr, double, double, double, double, double, i32, double, double, double, i32 }

@.str = private unnamed_addr constant [118 x i8] c"generated/home/dtcxzyw/WorkSpace/Projects/compilers/llvm-opt-benchmark/bench/sundials/sundials/src/kinsol/kinsol_io.c\00", align 1
@.str.1 = private unnamed_addr constant [27 x i8] c"kinsol_mem = NULL illegal.\00", align 1
@__func__.KINSetResMonParams = private unnamed_addr constant [19 x i8] c"KINSetResMonParams\00", align 1
@.str.13 = private unnamed_addr constant [21 x i8] c"scalars < 0 illegal.\00", align 1

; Function Attrs: nounwind uwtable
define i32 @KINSetResMonParams(ptr noundef %0, double noundef %1, double noundef %2) #0 {
  %4 = alloca i32, align 4
  %5 = alloca ptr, align 8
  %6 = alloca double, align 8
  %7 = alloca double, align 8
  %8 = alloca ptr, align 8
  %9 = alloca i32, align 4
  store ptr %0, ptr %5, align 8, !tbaa !3
  store double %1, ptr %6, align 8, !tbaa !20
  store double %2, ptr %7, align 8, !tbaa !20
  call void @llvm.lifetime.start.p0(i64 8, ptr %8) #5
  %10 = load ptr, ptr %5, align 8, !tbaa !3
  %11 = icmp eq ptr %10, null
  br i1 %11, label %12, label %13

12:                                               ; preds = %3
  call void (ptr, i32, i32, ptr, ptr, ptr, ...) @KINProcessError(ptr noundef null, i32 noundef -1, i32 noundef 524, ptr noundef @__func__.KINSetResMonParams, ptr noundef @.str, ptr noundef @.str.1)
  store i32 -1, ptr %4, align 4
  store i32 1, ptr %9, align 4
  br label %62

13:                                               ; preds = %3
  %14 = load ptr, ptr %5, align 8, !tbaa !3
  store ptr %14, ptr %8, align 8, !tbaa !7
  %15 = load double, ptr %6, align 8, !tbaa !20
  %16 = fcmp olt double %15, 0.000000e+00
  br i1 %16, label %17, label %19

17:                                               ; preds = %13
  %18 = load ptr, ptr %8, align 8, !tbaa !7
  call void (ptr, i32, i32, ptr, ptr, ptr, ...) @KINProcessError(ptr noundef %18, i32 noundef -2, i32 noundef 534, ptr noundef @__func__.KINSetResMonParams, ptr noundef @.str, ptr noundef @.str.13)
  store i32 -2, ptr %4, align 4
  store i32 1, ptr %9, align 4
  br label %62

19:                                               ; preds = %13
  %20 = load double, ptr %6, align 8, !tbaa !20
  %21 = fcmp oeq double %20, 0.000000e+00
  br i1 %21, label %22, label %25

22:                                               ; preds = %19
  %23 = load ptr, ptr %8, align 8, !tbaa !7
  %24 = getelementptr inbounds nuw %struct.KINMemRec, ptr %23, i32 0, i32 86
  store double 1.000000e-05, ptr %24, align 8, !tbaa !40
  br label %29

25:                                               ; preds = %19
  %26 = load double, ptr %6, align 8, !tbaa !20
  %27 = load ptr, ptr %8, align 8, !tbaa !7
  %28 = getelementptr inbounds nuw %struct.KINMemRec, ptr %27, i32 0, i32 86
  store double %26, ptr %28, align 8, !tbaa !40
  br label %29

29:                                               ; preds = %25, %22
  %30 = load double, ptr %7, align 8, !tbaa !20
  %31 = fcmp olt double %30, 0.000000e+00
  br i1 %31, label %32, label %34

32:                                               ; preds = %29
  %33 = load ptr, ptr %8, align 8, !tbaa !7
  call void (ptr, i32, i32, ptr, ptr, ptr, ...) @KINProcessError(ptr noundef %33, i32 noundef -2, i32 noundef 546, ptr noundef @__func__.KINSetResMonParams, ptr noundef @.str, ptr noundef @.str.13)
  store i32 -2, ptr %4, align 4
  store i32 1, ptr %9, align 4
  br label %62

34:                                               ; preds = %29
  %35 = load double, ptr %7, align 8, !tbaa !20
  %36 = fcmp oeq double %35, 0.000000e+00
  br i1 %36, label %37, label %48

37:                                               ; preds = %34
  %38 = load ptr, ptr %8, align 8, !tbaa !7
  %39 = getelementptr inbounds nuw %struct.KINMemRec, ptr %38, i32 0, i32 86
  %40 = load double, ptr %39, align 8, !tbaa !40
  %41 = fcmp ogt double %40, 9.000000e-01
  br i1 %41, label %42, label %44

42:                                               ; preds = %37
  %43 = load ptr, ptr %8, align 8, !tbaa !7
  call void (ptr, i32, i32, ptr, ptr, ptr, ...) @KINProcessError(ptr noundef %43, i32 noundef -2, i32 noundef 555, ptr noundef @__func__.KINSetResMonParams, ptr noundef @.str, ptr noundef @.str.13)
  store i32 -2, ptr %4, align 4
  store i32 1, ptr %9, align 4
  br label %62

44:                                               ; preds = %37
  %45 = load ptr, ptr %8, align 8, !tbaa !7
  %46 = getelementptr inbounds nuw %struct.KINMemRec, ptr %45, i32 0, i32 87
  store double 9.000000e-01, ptr %46, align 8, !tbaa !41
  br label %47

47:                                               ; preds = %44
  br label %61

48:                                               ; preds = %34
  %49 = load ptr, ptr %8, align 8, !tbaa !7
  %50 = getelementptr inbounds nuw %struct.KINMemRec, ptr %49, i32 0, i32 86
  %51 = load double, ptr %50, align 8, !tbaa !40
  %52 = load double, ptr %7, align 8, !tbaa !20
  %53 = fcmp ogt double %51, %52
  br i1 %53, label %54, label %56

54:                                               ; preds = %48
  %55 = load ptr, ptr %8, align 8, !tbaa !7
  call void (ptr, i32, i32, ptr, ptr, ptr, ...) @KINProcessError(ptr noundef %55, i32 noundef -2, i32 noundef 565, ptr noundef @__func__.KINSetResMonParams, ptr noundef @.str, ptr noundef @.str.13)
  store i32 -2, ptr %4, align 4
  store i32 1, ptr %9, align 4
  br label %62

56:                                               ; preds = %48
  %57 = load double, ptr %7, align 8, !tbaa !20
  %58 = load ptr, ptr %8, align 8, !tbaa !7
  %59 = getelementptr inbounds nuw %struct.KINMemRec, ptr %58, i32 0, i32 87
  store double %57, ptr %59, align 8, !tbaa !41
  br label %60

60:                                               ; preds = %56
  br label %61

61:                                               ; preds = %60, %47
  store i32 0, ptr %4, align 4
  store i32 1, ptr %9, align 4
  br label %62

62:                                               ; preds = %61, %54, %42, %32, %17, %12
  call void @llvm.lifetime.end.p0(i64 8, ptr %8) #5
  %63 = load i32, ptr %4, align 4
  ret i32 %63
}